; Function Attrs: nofree norecurse nosync nounwind memory(read, inaccessiblemem: none) uwtable
define i32 @Kit_SopBestLiteral(ptr noundef readonly captures(none) %0, i32 noundef %1, i32 noundef %2) local_unnamed_addr #1 {
  %4 = icmp sgt i32 %1, 0
  br i1 %4, label %.lr.ph45, label %._crit_edge

.lr.ph45:                                         ; preds = %3
  %5 = getelementptr i8, ptr %0, i64 8
  %6 = getelementptr i8, ptr %0, i64 4
  br label %7

7:                                                ; preds = %.lr.ph45, %19
  %.02644 = phi i32 [ -1, %.lr.ph45 ], [ %.127, %19 ]
  %.02843 = phi i32 [ -1, %.lr.ph45 ], [ %.129, %19 ]
  %.03142 = phi i32 [ 0, %.lr.ph45 ], [ %20, %19 ]
  %8 = shl nuw i32 1, %.03142
  %9 = and i32 %8, %2
  %.not = icmp eq i32 %9, 0
  br i1 %.not, label %19, label %.preheader

.preheader:                                       ; preds = %7
  %.val = load i32, ptr %6, align 4, !tbaa !3
  %10 = icmp sgt i32 %.val, 0
  br i1 %10, label %.lr.ph, label %.critedge

.lr.ph:                                           ; preds = %.preheader
  %.val37 = load ptr, ptr %5, align 8, !tbaa !12
  %wide.trip.count = zext nneg i32 %.val to i64
  br label %11

11:                                               ; preds = %.lr.ph, %14
  %indvars.iv = phi i64 [ 0, %.lr.ph ], [ %indvars.iv.next, %14 ]
  %.02539 = phi i32 [ 0, %.lr.ph ], [ %spec.select, %14 ]
  %12 = getelementptr inbounds nuw i32, ptr %.val37, i64 %indvars.iv
  %13 = load i32, ptr %12, align 4, !tbaa !15
  %.not33 = icmp eq i32 %13, 0
  br i1 %.not33, label %.critedge, label %14

14:                                               ; preds = %11
  %15 = lshr i32 %13, %.03142
  %16 = and i32 %15, 1
  %spec.select = add nuw nsw i32 %16, %.02539
  %indvars.iv.next = add nuw nsw i64 %indvars.iv, 1
  %exitcond.not = icmp eq i64 %indvars.iv.next, %wide.trip.count
  br i1 %exitcond.not, label %.critedge, label %11, !llvm.loop !35

.critedge:                                        ; preds = %11, %14, %.preheader
  %.025.lcssa = phi i32 [ 0, %.preheader ], [ %spec.select, %14 ], [ %.02539, %11 ]
  %17 = icmp samesign ugt i32 %.025.lcssa, 1
  %18 = icmp slt i32 %.02644, %.025.lcssa
  %or.cond = select i1 %17, i1 %18, i1 false
  %spec.select35 = select i1 %or.cond, i32 %.03142, i32 %.02843
  %spec.select36 = select i1 %or.cond, i32 %.025.lcssa, i32 %.02644
  br label %19

19:                                               ; preds = %.critedge, %7
  %.129 = phi i32 [ %.02843, %7 ], [ %spec.select35, %.critedge ]
  %.127 = phi i32 [ %.02644, %7 ], [ %spec.select36, %.critedge ]
  %20 = add nuw nsw i32 %.03142, 1
  %exitcond49.not = icmp eq i32 %20, %1
  br i1 %exitcond49.not, label %._crit_edge.loopexit, label %7, !llvm.loop !36

._crit_edge.loopexit:                             ; preds = %19
  %21 = icmp sgt i32 %.127, -1
  %22 = select i1 %21, i32 %.129, i32 -1
  br label %._crit_edge

._crit_edge:                                      ; preds = %._crit_edge.loopexit, %3
  %.026.lcssa = phi i32 [ -1, %3 ], [ %22, %._crit_edge.loopexit ]
  ret i32 %.026.lcssa
}